target datalayout = "e-m:e-p270:32:32-p271:32:32-p272:64:64-i64:64-i128:128-f80:128-n8:16:32:64-S128"
target triple = "x86_64-unknown-linux-gnu"

%struct.QObjectBase_ = type { i32, i64 }
%struct.QObjectInputVisitor = type { %struct.Visitor, ptr, i8, %struct.anon, ptr }
%struct.Visitor = type { ptr, ptr, ptr, ptr, ptr, ptr, ptr, ptr, ptr, ptr, ptr, ptr, ptr, ptr, ptr, ptr, ptr, ptr, ptr, ptr, i32, %struct.CompatPolicy, ptr, ptr }
%struct.CompatPolicy = type { i8, i32, i8, i32, i8, i32, i8, i32 }
%struct.anon = type { ptr }
%struct.QObject = type { %struct.QObjectBase_ }
%struct.StackObject = type { ptr, ptr, ptr, ptr, ptr, i32, %struct.anon.1 }
%struct.anon.1 = type { ptr }
%struct.QTailQLink = type { ptr, ptr }
%struct.QList = type { %struct.QObjectBase_, %union.anon.2 }
%union.anon.2 = type { %struct.QTailQLink }

@.str.1 = private unnamed_addr constant [37 x i8] c"../qemu/qapi/qobject-input-visitor.c\00", align 1
@.str.2 = private unnamed_addr constant [4 x i8] c"obj\00", align 1
@.str.12 = private unnamed_addr constant [59 x i8] c"QTYPE_NONE < obj->base.type && obj->base.type < QTYPE__MAX\00", align 1
@.str.13 = private unnamed_addr constant [105 x i8] c"/home/dtcxzyw/WorkSpace/Projects/compilers/llvm-opt-benchmark/bench/qemu/qemu/include/qapi/qmp/qobject.h\00", align 1
@__PRETTY_FUNCTION__.qobject_type = private unnamed_addr constant [36 x i8] c"QType qobject_type(const QObject *)\00", align 1
@__PRETTY_FUNCTION__.qobject_input_push = private unnamed_addr constant [93 x i8] c"const QListEntry *qobject_input_push(QObjectInputVisitor *, const char *, QObject *, void *)\00", align 1
@.str.19 = private unnamed_addr constant [6 x i8] c"qlist\00", align 1

; Function Attrs: nounwind sspstrong uwtable
define internal i32 @qobject_type(ptr noundef %obj) #0 {
entry:
  %obj.addr = alloca ptr, align 8
  store ptr %obj, ptr %obj.addr, align 8
  %0 = load ptr, ptr %obj.addr, align 8
  %base = getelementptr inbounds %struct.QObject, ptr %0, i32 0, i32 0
  %type = getelementptr inbounds %struct.QObjectBase_, ptr %base, i32 0, i32 0
  %1 = load i32, ptr %type, align 8
  %cmp = icmp ult i32 0, %1
  br i1 %cmp, label %land.lhs.true, label %if.else

land.lhs.true:                                    ; preds = %entry
  %2 = load ptr, ptr %obj.addr, align 8
  %base1 = getelementptr inbounds %struct.QObject, ptr %2, i32 0, i32 0
  %type2 = getelementptr inbounds %struct.QObjectBase_, ptr %base1, i32 0, i32 0
  %3 = load i32, ptr %type2, align 8
  %cmp3 = icmp ult i32 %3, 7
  br i1 %cmp3, label %if.then, label %if.else

if.then:                                          ; preds = %land.lhs.true
  br label %if.end

if.else:                                          ; preds = %land.lhs.true, %entry
  call void @__assert_fail(ptr noundef @.str.12, ptr noundef @.str.13, i32 noundef 126, ptr noundef @__PRETTY_FUNCTION__.qobject_type) #7
  unreachable

if.end:                                           ; preds = %if.then
  %4 = load ptr, ptr %obj.addr, align 8
  %base4 = getelementptr inbounds %struct.QObject, ptr %4, i32 0, i32 0
  %type5 = getelementptr inbounds %struct.QObjectBase_, ptr %base4, i32 0, i32 0
  %5 = load i32, ptr %type5, align 8
  ret i32 %5
}

; Function Attrs: nounwind sspstrong uwtable
define internal ptr @qlist_first(ptr noundef %qlist) #0 {
entry:
  %qlist.addr = alloca ptr, align 8
  store ptr %qlist, ptr %qlist.addr, align 8
  %0 = load ptr, ptr %qlist.addr, align 8
  %head = getelementptr inbounds %struct.QList, ptr %0, i32 0, i32 1
  %1 = load ptr, ptr %head, align 8
  ret ptr %1
}

; Function Attrs: nounwind sspstrong uwtable
define internal ptr @qobject_check_type(ptr noundef %obj, i32 noundef %type) #0 {
entry:
  %retval = alloca ptr, align 8
  %obj.addr = alloca ptr, align 8
  %type.addr = alloca i32, align 4
  store ptr %obj, ptr %obj.addr, align 8
  store i32 %type, ptr %type.addr, align 4
  %0 = load ptr, ptr %obj.addr, align 8
  %tobool = icmp ne ptr %0, null
  br i1 %tobool, label %land.lhs.true, label %if.else

land.lhs.true:                                    ; preds = %entry
  %1 = load ptr, ptr %obj.addr, align 8
  %call = call i32 @qobject_type(ptr noundef %1)
  %2 = load i32, ptr %type.addr, align 4
  %cmp = icmp eq i32 %call, %2
  br i1 %cmp, label %if.then, label %if.else

if.then:                                          ; preds = %land.lhs.true
  %3 = load ptr, ptr %obj.addr, align 8
  store ptr %3, ptr %retval, align 8
  br label %return

if.else:                                          ; preds = %land.lhs.true, %entry
  store ptr null, ptr %retval, align 8
  br label %return

return:                                           ; preds = %if.else, %if.then
  %4 = load ptr, ptr %retval, align 8
  ret ptr %4
}

; Function Attrs: nounwind sspstrong uwtable
define internal ptr @qobject_input_push(ptr noundef %qiv, ptr noundef %name, ptr noundef %obj, ptr noundef %qapi) #0 {
entry:
  %qiv.addr = alloca ptr, align 8
  %name.addr = alloca ptr, align 8
  %obj.addr = alloca ptr, align 8
  %qapi.addr = alloca ptr, align 8
  %h = alloca ptr, align 8
  %tos = alloca ptr, align 8
  %qdict = alloca ptr, align 8
  %qlist = alloca ptr, align 8
  %entry3 = alloca ptr, align 8
  store ptr %qiv, ptr %qiv.addr, align 8
  store ptr %name, ptr %name.addr, align 8
  store ptr %obj, ptr %obj.addr, align 8
  store ptr %qapi, ptr %qapi.addr, align 8
  %call = call noalias ptr @g_malloc0_n(i64 noundef 1, i64 noundef 56) #8
  store ptr %call, ptr %tos, align 8
  %0 = load ptr, ptr %obj.addr, align 8
  %call1 = call ptr @qobject_check_type(ptr noundef %0, i32 noundef 4)
  store ptr %call1, ptr %qdict, align 8
  %1 = load ptr, ptr %obj.addr, align 8
  %call2 = call ptr @qobject_check_type(ptr noundef %1, i32 noundef 5)
  store ptr %call2, ptr %qlist, align 8
  %2 = load ptr, ptr %obj.addr, align 8
  %tobool = icmp ne ptr %2, null
  br i1 %tobool, label %if.then, label %if.else

if.then:                                          ; preds = %entry
  br label %if.end

if.else:                                          ; preds = %entry
  call void @__assert_fail(ptr noundef @.str.2, ptr noundef @.str.1, i32 noundef 217, ptr noundef @__PRETTY_FUNCTION__.qobject_input_push) #7
  unreachable

if.end:                                           ; preds = %if.then
  %3 = load ptr, ptr %name.addr, align 8
  %4 = load ptr, ptr %tos, align 8
  %name4 = getelementptr inbounds %struct.StackObject, ptr %4, i32 0, i32 0
  store ptr %3, ptr %name4, align 8
  %5 = load ptr, ptr %obj.addr, align 8
  %6 = load ptr, ptr %tos, align 8
  %obj5 = getelementptr inbounds %struct.StackObject, ptr %6, i32 0, i32 1
  store ptr %5, ptr %obj5, align 8
  %7 = load ptr, ptr %qapi.addr, align 8
  %8 = load ptr, ptr %tos, align 8
  %qapi6 = getelementptr inbounds %struct.StackObject, ptr %8, i32 0, i32 2
  store ptr %7, ptr %qapi6, align 8
  %9 = load ptr, ptr %qdict, align 8
  %tobool7 = icmp ne ptr %9, null
  br i1 %tobool7, label %if.then8, label %if.else16

if.then8:                                         ; preds = %if.end
  %call9 = call ptr @g_hash_table_new(ptr noundef @g_str_hash, ptr noundef @g_str_equal)
  store ptr %call9, ptr %h, align 8
  %10 = load ptr, ptr %qdict, align 8
  %call10 = call ptr @qdict_first(ptr noundef %10)
  store ptr %call10, ptr %entry3, align 8
  br label %for.cond

for.cond:                                         ; preds = %for.inc, %if.then8
  %11 = load ptr, ptr %entry3, align 8
  %tobool11 = icmp ne ptr %11, null
  br i1 %tobool11, label %for.body, label %for.end

for.body:                                         ; preds = %for.cond
  %12 = load ptr, ptr %h, align 8
  %13 = load ptr, ptr %entry3, align 8
  %call12 = call ptr @qdict_entry_key(ptr noundef %13)
  %call13 = call i32 @g_hash_table_insert(ptr noundef %12, ptr noundef %call12, ptr noundef null)
  br label %for.inc

for.inc:                                          ; preds = %for.body
  %14 = load ptr, ptr %qdict, align 8
  %15 = load ptr, ptr %entry3, align 8
  %call14 = call ptr @qdict_next(ptr noundef %14, ptr noundef %15)
  store ptr %call14, ptr %entry3, align 8
  br label %for.cond, !llvm.loop !7

for.end:                                          ; preds = %for.cond
  %16 = load ptr, ptr %h, align 8
  %17 = load ptr, ptr %tos, align 8
  %h15 = getelementptr inbounds %struct.StackObject, ptr %17, i32 0, i32 3
  store ptr %16, ptr %h15, align 8
  br label %if.end23

if.else16:                                        ; preds = %if.end
  %18 = load ptr, ptr %qlist, align 8
  %tobool17 = icmp ne ptr %18, null
  br i1 %tobool17, label %if.then18, label %if.else19

if.then18:                                        ; preds = %if.else16
  br label %if.end20

if.else19:                                        ; preds = %if.else16
  call void @__assert_fail(ptr noundef @.str.19, ptr noundef @.str.1, i32 noundef 231, ptr noundef @__PRETTY_FUNCTION__.qobject_input_push) #7
  unreachable

if.end20:                                         ; preds = %if.then18
  %19 = load ptr, ptr %qlist, align 8
  %call21 = call ptr @qlist_first(ptr noundef %19)
  %20 = load ptr, ptr %tos, align 8
  %entry22 = getelementptr inbounds %struct.StackObject, ptr %20, i32 0, i32 4
  store ptr %call21, ptr %entry22, align 8
  %21 = load ptr, ptr %tos, align 8
  %index = getelementptr inbounds %struct.StackObject, ptr %21, i32 0, i32 5
  store i32 -1, ptr %index, align 8
  br label %if.end23

if.end23:                                         ; preds = %if.end20, %for.end
  br label %do.body

do.body:                                          ; preds = %if.end23
  %22 = load ptr, ptr %qiv.addr, align 8
  %stack = getelementptr inbounds %struct.QObjectInputVisitor, ptr %22, i32 0, i32 3
  %slh_first = getelementptr inbounds %struct.anon, ptr %stack, i32 0, i32 0
  %23 = load ptr, ptr %slh_first, align 8
  %24 = load ptr, ptr %tos, align 8
  %node = getelementptr inbounds %struct.StackObject, ptr %24, i32 0, i32 6
  %sle_next = getelementptr inbounds %struct.anon.1, ptr %node, i32 0, i32 0
  store ptr %23, ptr %sle_next, align 8
  %25 = load ptr, ptr %tos, align 8
  %26 = load ptr, ptr %qiv.addr, align 8
  %stack24 = getelementptr inbounds %struct.QObjectInputVisitor, ptr %26, i32 0, i32 3
  %slh_first25 = getelementptr inbounds %struct.anon, ptr %stack24, i32 0, i32 0
  store ptr %25, ptr %slh_first25, align 8
  br label %do.end

do.end:                                           ; preds = %do.body
  %27 = load ptr, ptr %tos, align 8
  %entry26 = getelementptr inbounds %struct.StackObject, ptr %27, i32 0, i32 4
  %28 = load ptr, ptr %entry26, align 8
  ret ptr %28
}