; Function Attrs: nounwind sspstrong uwtable
define internal fastcc ptr @qobject_input_push(ptr noundef captures(none) %qiv, ptr noundef %name, ptr noundef nonnull %obj, ptr noundef %qapi) unnamed_addr #0 {
entry:
  %call = tail call noalias dereferenceable_or_null(56) ptr @g_malloc0_n(i64 noundef 1, i64 noundef 56) #9
  %obj.val.i = load i32, ptr %obj, align 8
  %0 = add i32 %obj.val.i, -1
  %or.cond.i.i = icmp ult i32 %0, 6
  br i1 %or.cond.i.i, label %qobject_type.exit.i, label %if.else.i.i

if.else.i.i:                                      ; preds = %entry
  tail call void @__assert_fail(ptr noundef nonnull @.str.12, ptr noundef nonnull @.str.13, i32 noundef 126, ptr noundef nonnull @__PRETTY_FUNCTION__.qobject_type) #7
  unreachable

qobject_type.exit.i:                              ; preds = %entry
  store ptr %name, ptr %call, align 8
  %obj53338 = getelementptr inbounds nuw i8, ptr %call, i64 8
  store ptr %obj, ptr %obj53338, align 8
  %qapi63439 = getelementptr inbounds nuw i8, ptr %call, i64 16
  store ptr %qapi, ptr %qapi63439, align 8
  switch i32 %obj.val.i, label %if.else19 [
    i32 4, label %if.then8
    i32 5, label %if.end20
  ]

if.then8:                                         ; preds = %qobject_type.exit.i
  %call9 = tail call ptr @g_hash_table_new(ptr noundef nonnull @g_str_hash, ptr noundef nonnull @g_str_equal) #8
  %call10 = tail call ptr @qdict_first(ptr noundef nonnull %obj) #8
  %tobool11.not41 = icmp eq ptr %call10, null
  br i1 %tobool11.not41, label %for.end, label %for.body

for.body:                                         ; preds = %if.then8, %for.body
  %entry3.042 = phi ptr [ %call14, %for.body ], [ %call10, %if.then8 ]
  %call12 = tail call ptr @qdict_entry_key(ptr noundef nonnull %entry3.042) #8
  %call13 = tail call i32 @g_hash_table_insert(ptr noundef %call9, ptr noundef %call12, ptr noundef null) #8
  %call14 = tail call ptr @qdict_next(ptr noundef nonnull %obj, ptr noundef nonnull %entry3.042) #8
  %tobool11.not = icmp eq ptr %call14, null
  br i1 %tobool11.not, label %for.end, label %for.body, !llvm.loop !7

for.end:                                          ; preds = %for.body, %if.then8
  %h15 = getelementptr inbounds nuw i8, ptr %call, i64 24
  store ptr %call9, ptr %h15, align 8
  %entry26.phi.trans.insert = getelementptr inbounds nuw i8, ptr %call, i64 32
  %.pre = load ptr, ptr %entry26.phi.trans.insert, align 8
  br label %do.body

if.else19:                                        ; preds = %qobject_type.exit.i
  tail call void @__assert_fail(ptr noundef nonnull @.str.19, ptr noundef nonnull @.str.1, i32 noundef 231, ptr noundef nonnull @__PRETTY_FUNCTION__.qobject_input_push) #7
  unreachable

if.end20:                                         ; preds = %qobject_type.exit.i
  %1 = getelementptr i8, ptr %obj, i64 16
  %call2.val = load ptr, ptr %1, align 8
  %entry22 = getelementptr inbounds nuw i8, ptr %call, i64 32
  store ptr %call2.val, ptr %entry22, align 8
  %index = getelementptr inbounds nuw i8, ptr %call, i64 40
  store i32 -1, ptr %index, align 8
  br label %do.body

do.body:                                          ; preds = %for.end, %if.end20
  %2 = phi ptr [ %.pre, %for.end ], [ %call2.val, %if.end20 ]
  %stack = getelementptr inbounds nuw i8, ptr %qiv, i64 232
  %3 = load ptr, ptr %stack, align 8
  %node = getelementptr inbounds nuw i8, ptr %call, i64 48
  store ptr %3, ptr %node, align 8
  store ptr %call, ptr %stack, align 8
  ret ptr %2
}